; Function Attrs: mustprogress nofree nounwind willreturn memory(read, inaccessiblemem: none) uwtable
define internal zeroext i1 @scram_channel_bound(ptr noundef readonly captures(address_is_null) %0) #1 {
  %2 = icmp eq ptr %0, null
  br i1 %2, label %9, label %3

3:                                                ; preds = %1
  %4 = load i32, ptr %0, align 8
  %.not = icmp eq i32 %4, 3
  br i1 %.not, label %5, label %9

5:                                                ; preds = %3
  %6 = getelementptr inbounds nuw i8, ptr %0, i64 24
  %7 = load ptr, ptr %6, align 8
  %8 = tail call i32 @strcmp(ptr noundef nonnull dereferenceable(1) %7, ptr noundef nonnull dereferenceable(19) @.str.2) #14
  %.not6 = icmp eq i32 %8, 0
  br label %9

9:                                                ; preds = %5, %3, %1
  %.0 = phi i1 [ false, %1 ], [ false, %3 ], [ %.not6, %5 ]
  ret i1 %.0
}